; Function Attrs: mustprogress uwtable
define internal void @_ZL14destroyed_portPvN4absl12lts_202407226StatusE(ptr noundef %0, ptr readnone captures(none) %1) #5 personality ptr @__gxx_personality_v0 {
  %3 = alloca %"class.absl::lts_20240722::log_internal::LogMessageFatal", align 8
  %4 = getelementptr inbounds nuw i8, ptr %0, i64 24
  tail call void @gpr_mu_lock(ptr noundef nonnull %4)
  %5 = getelementptr inbounds nuw i8, ptr %0, i64 40
  %6 = load i64, ptr %5, align 8, !tbaa !306
  %7 = add i64 %6, 1
  store i64 %7, ptr %5, align 8, !tbaa !306
  %8 = getelementptr inbounds nuw i8, ptr %0, i64 72
  %9 = load i32, ptr %8, align 8, !tbaa !164
  %10 = zext i32 %9 to i64
  %11 = icmp eq i64 %7, %10
  br i1 %11, label %12, label %13

12:                                               ; preds = %2
  tail call void @gpr_mu_unlock(ptr noundef nonnull %4)
  tail call fastcc void @_ZL15finish_shutdownP15grpc_tcp_server(ptr noundef nonnull %0)
  br label %15

13:                                               ; preds = %2
  %.not.not = icmp ult i64 %7, %10
  br i1 %.not.not, label %.critedge, label %14, !prof !142

14:                                               ; preds = %13
  call void @llvm.lifetime.start.p0(i64 16, ptr nonnull %3) #36
  call void @_ZN4absl12lts_2024072212log_internal15LogMessageFatalC1EPKciSt17basic_string_viewIcSt11char_traitsIcEE(ptr noundef nonnull align 8 dereferenceable(16) %3, ptr noundef nonnull @.str.4, i32 noundef 308, i64 30, ptr nonnull @.str.36) #38
  call void @_ZN4absl12lts_2024072212log_internal15LogMessageFatalD1Ev(ptr noundef nonnull align 8 dereferenceable(16) %3) #37
  unreachable

.critedge:                                        ; preds = %13
  tail call void @gpr_mu_unlock(ptr noundef nonnull %4)
  br label %15

15:                                               ; preds = %.critedge, %12
  ret void
}